target datalayout = "e-m:e-p270:32:32-p271:32:32-p272:64:64-i64:64-i128:128-f80:128-n8:16:32:64-S128"
target triple = "x86_64-pc-linux-gnu"

; Function Attrs: mustprogress nounwind uwtable
define hidden void @_ZN2cv12ppf_match_3d7shuffleEPim(ptr noundef %0, i64 noundef %1) #6 {
  %3 = alloca ptr, align 8
  %4 = alloca i64, align 8
  %5 = alloca i64, align 8
  %6 = alloca i64, align 8
  %7 = alloca i32, align 4
  store ptr %0, ptr %3, align 8, !tbaa !101
  store i64 %1, ptr %4, align 8, !tbaa !33
  call void @llvm.lifetime.start.p0(i64 8, ptr %5) #3
  store i64 0, ptr %5, align 8, !tbaa !33
  br label %8

8:                                                ; preds = %39, %2
  %9 = load i64, ptr %5, align 8, !tbaa !33
  %10 = load i64, ptr %4, align 8, !tbaa !33
  %11 = sub i64 %10, 1
  %12 = icmp ult i64 %9, %11
  br i1 %12, label %13, label %42

13:                                               ; preds = %8
  call void @llvm.lifetime.start.p0(i64 8, ptr %6) #3
  %14 = load i64, ptr %5, align 8, !tbaa !33
  %15 = call i32 @rand() #3
  %16 = sext i32 %15 to i64
  %17 = load i64, ptr %4, align 8, !tbaa !33
  %18 = load i64, ptr %5, align 8, !tbaa !33
  %19 = sub i64 %17, %18
  %20 = udiv i64 2147483647, %19
  %21 = add i64 %20, 1
  %22 = udiv i64 %16, %21
  %23 = add i64 %14, %22
  store i64 %23, ptr %6, align 8, !tbaa !33
  call void @llvm.lifetime.start.p0(i64 4, ptr %7) #3
  %24 = load ptr, ptr %3, align 8, !tbaa !101
  %25 = load i64, ptr %6, align 8, !tbaa !33
  %26 = getelementptr inbounds nuw i32, ptr %24, i64 %25
  %27 = load i32, ptr %26, align 4, !tbaa !8
  store i32 %27, ptr %7, align 4, !tbaa !8
  %28 = load ptr, ptr %3, align 8, !tbaa !101
  %29 = load i64, ptr %5, align 8, !tbaa !33
  %30 = getelementptr inbounds nuw i32, ptr %28, i64 %29
  %31 = load i32, ptr %30, align 4, !tbaa !8
  %32 = load ptr, ptr %3, align 8, !tbaa !101
  %33 = load i64, ptr %6, align 8, !tbaa !33
  %34 = getelementptr inbounds nuw i32, ptr %32, i64 %33
  store i32 %31, ptr %34, align 4, !tbaa !8
  %35 = load i32, ptr %7, align 4, !tbaa !8
  %36 = load ptr, ptr %3, align 8, !tbaa !101
  %37 = load i64, ptr %5, align 8, !tbaa !33
  %38 = getelementptr inbounds nuw i32, ptr %36, i64 %37
  store i32 %35, ptr %38, align 4, !tbaa !8
  call void @llvm.lifetime.end.p0(i64 4, ptr %7) #3
  call void @llvm.lifetime.end.p0(i64 8, ptr %6) #3
  br label %39

39:                                               ; preds = %13
  %40 = load i64, ptr %5, align 8, !tbaa !33
  %41 = add i64 %40, 1
  store i64 %41, ptr %5, align 8, !tbaa !33
  br label %8, !llvm.loop !105

42:                                               ; preds = %8
  call void @llvm.lifetime.end.p0(i64 8, ptr %5) #3
  ret void
}