; Function Attrs: mustprogress nounwind uwtable
define hidden void @_ZN2cv12ppf_match_3d7shuffleEPim(ptr noundef captures(none) %0, i64 noundef %1) local_unnamed_addr #7 {
  %3 = add i64 %1, -1
  %.not = icmp eq i64 %3, 0
  br i1 %.not, label %._crit_edge, label %.lr.ph

.lr.ph:                                           ; preds = %2, %.lr.ph
  %.014 = phi i64 [ %14, %.lr.ph ], [ 0, %2 ]
  %4 = tail call i32 @rand() #36
  %5 = sext i32 %4 to i64
  %6 = sub i64 %1, %.014
  %7 = udiv i64 2147483647, %6
  %8 = add nuw nsw i64 %7, 1
  %9 = udiv i64 %5, %8
  %10 = getelementptr i32, ptr %0, i64 %.014
  %11 = getelementptr i32, ptr %10, i64 %9
  %12 = load i32, ptr %11, align 4, !tbaa !109
  %13 = load i32, ptr %10, align 4, !tbaa !109
  store i32 %13, ptr %11, align 4, !tbaa !109
  store i32 %12, ptr %10, align 4, !tbaa !109
  %14 = add nuw i64 %.014, 1
  %exitcond.not = icmp eq i64 %14, %3
  br i1 %exitcond.not, label %._crit_edge, label %.lr.ph, !llvm.loop !169

._crit_edge:                                      ; preds = %.lr.ph, %2
  ret void
}